target datalayout = "e-m:e-p270:32:32-p271:32:32-p272:64:64-i64:64-i128:128-f80:128-n8:16:32:64-S128"
target triple = "x86_64-unknown-linux-gnu"

%"class.std::__shared_count" = type { ptr }
%"struct.v8::Isolate::CreateParams" = type { ptr, %"class.v8::ResourceConstraints", ptr, ptr, ptr, ptr, ptr, %"class.std::shared_ptr.340", ptr, i8, i8, i32, i32, ptr, ptr }
%"class.v8::ResourceConstraints" = type { i64, i64, i64, i64, i64, ptr }
%"class.std::shared_ptr.340" = type { %"class.std::__shared_ptr.341" }
%"class.std::__shared_ptr.341" = type { ptr, %"class.std::__shared_count" }

; Function Attrs: mustprogress nounwind uwtable
define dso_local noundef ptr @_ZN4node10NewIsolateEPNS_20ArrayBufferAllocatorEP9uv_loop_sPNS_20MultiIsolatePlatformEPKNS_20EmbedderSnapshotDataERKNS_15IsolateSettingsE(ptr noundef %allocator, ptr noundef %event_loop, ptr noundef %platform, ptr noundef %snapshot_data, ptr noundef nonnull align 8 dereferenceable(64) %settings) #4 {
entry:
  %allocator.addr = alloca ptr, align 8
  %event_loop.addr = alloca ptr, align 8
  %platform.addr = alloca ptr, align 8
  %snapshot_data.addr = alloca ptr, align 8
  %settings.addr = alloca ptr, align 8
  %params = alloca %"struct.v8::Isolate::CreateParams", align 8
  store ptr %allocator, ptr %allocator.addr, align 8
  store ptr %event_loop, ptr %event_loop.addr, align 8
  store ptr %platform, ptr %platform.addr, align 8
  store ptr %snapshot_data, ptr %snapshot_data.addr, align 8
  store ptr %settings, ptr %settings.addr, align 8
  call void @_ZN2v87Isolate12CreateParamsC1Ev(ptr noundef nonnull align 8 dereferenceable(152) %params)
  %0 = load ptr, ptr %allocator.addr, align 8
  %cmp = icmp ne ptr %0, null
  br i1 %cmp, label %if.then, label %if.end

if.then:                                          ; preds = %entry
  %1 = load ptr, ptr %allocator.addr, align 8
  %array_buffer_allocator = getelementptr inbounds %"struct.v8::Isolate::CreateParams", ptr %params, i32 0, i32 6
  store ptr %1, ptr %array_buffer_allocator, align 8
  br label %if.end

if.end:                                           ; preds = %if.then, %entry
  %2 = load ptr, ptr %event_loop.addr, align 8
  %3 = load ptr, ptr %platform.addr, align 8
  %4 = load ptr, ptr %snapshot_data.addr, align 8
  %call = call noundef ptr @_ZN4node12SnapshotData19FromEmbedderWrapperEPKNS_20EmbedderSnapshotDataE(ptr noundef %4)
  %5 = load ptr, ptr %settings.addr, align 8
  %call1 = call noundef ptr @_ZN4node10NewIsolateEPN2v87Isolate12CreateParamsEP9uv_loop_sPNS_20MultiIsolatePlatformEPKNS_12SnapshotDataERKNS_15IsolateSettingsE(ptr noundef %params, ptr noundef %2, ptr noundef %3, ptr noundef %call, ptr noundef nonnull align 8 dereferenceable(64) %5)
  call void @_ZN2v87Isolate12CreateParamsD1Ev(ptr noundef nonnull align 8 dereferenceable(152) %params) #3
  ret ptr %call1
}