; Function Attrs: mustprogress nounwind uwtable
define dso_local noundef ptr @_ZN4node10NewIsolateEPNS_20ArrayBufferAllocatorEP9uv_loop_sPNS_20MultiIsolatePlatformEPKNS_20EmbedderSnapshotDataERKNS_15IsolateSettingsE(ptr noundef %allocator, ptr noundef %event_loop, ptr noundef %platform, ptr noundef %snapshot_data, ptr nocapture noundef nonnull readonly align 8 dereferenceable(64) %settings) local_unnamed_addr #3 {
entry:
  %params = alloca %"struct.v8::Isolate::CreateParams", align 8
  call void @_ZN2v87Isolate12CreateParamsC1Ev(ptr noundef nonnull align 8 dereferenceable(152) %params) #12
  %cmp.not = icmp eq ptr %allocator, null
  br i1 %cmp.not, label %if.end, label %if.then

if.then:                                          ; preds = %entry
  %array_buffer_allocator = getelementptr inbounds i8, ptr %params, i64 88
  store ptr %allocator, ptr %array_buffer_allocator, align 8
  br label %if.end

if.end:                                           ; preds = %if.then, %entry
  %call = call noundef ptr @_ZN4node12SnapshotData19FromEmbedderWrapperEPKNS_20EmbedderSnapshotDataE(ptr noundef %snapshot_data) #12
  %call1 = call noundef ptr @_ZN4node10NewIsolateEPN2v87Isolate12CreateParamsEP9uv_loop_sPNS_20MultiIsolatePlatformEPKNS_12SnapshotDataERKNS_15IsolateSettingsE(ptr noundef nonnull %params, ptr noundef %event_loop, ptr noundef %platform, ptr noundef %call, ptr noundef nonnull align 8 dereferenceable(64) %settings)
  call void @_ZN2v87Isolate12CreateParamsD1Ev(ptr noundef nonnull align 8 dereferenceable(152) %params) #12
  ret ptr %call1
}